target datalayout = "e-m:e-p270:32:32-p271:32:32-p272:64:64-i64:64-i128:128-f80:128-n8:16:32:64-S128"
target triple = "x86_64-pc-linux-gnu"

%struct.RBasic = type { i64, i64 }
%struct.OnigEncodingTypeST = type { ptr, ptr, i32, i32, ptr, ptr, ptr, ptr, ptr, ptr, ptr, ptr, ptr, ptr, ptr, ptr, ptr, i32, i32 }
%struct.RString = type { %struct.RBasic, i64, %union.anon.19 }
%union.anon.19 = type { %struct.anon.20 }
%struct.anon.20 = type { ptr, %union.anon.21 }
%union.anon.21 = type { i64 }
%struct.anon.22 = type { [1 x i8] }

@.str.86 = private unnamed_addr constant [14 x i8] c", \22bytesize\22:\00", align 1
@.str.87 = private unnamed_addr constant [14 x i8] c", \22capacity\22:\00", align 1
@.str.88 = private unnamed_addr constant [11 x i8] c", \22value\22:\00", align 1

; Function Attrs: inlinehint nounwind sspstrong willreturn memory(read) uwtable
define internal zeroext i1 @RB_FL_ANY_RAW(i64 noundef %0, i64 noundef %1) #5 {
  %3 = alloca i64, align 8
  %4 = alloca i64, align 8
  store i64 %0, ptr %3, align 8, !tbaa !6
  store i64 %1, ptr %4, align 8, !tbaa !6
  %5 = load i64, ptr %3, align 8, !tbaa !6
  %6 = load i64, ptr %4, align 8, !tbaa !6
  %7 = call i64 @RB_FL_TEST_RAW(i64 noundef %5, i64 noundef %6) #23
  %8 = icmp ne i64 %7, 0
  ret i1 %8
}

; Function Attrs: inlinehint nounwind sspstrong willreturn memory(read, argmem: readwrite) uwtable
define internal void @rbimpl_rstring_getmem(ptr dead_on_unwind noalias writable sret(%struct.RString) align 8 %0, i64 noundef %1) #18 {
  %3 = alloca i64, align 8
  store i64 %1, ptr %3, align 8, !tbaa !6
  %4 = load i64, ptr %3, align 8, !tbaa !6
  %5 = call zeroext i1 @RB_FL_ANY_RAW(i64 noundef %4, i64 noundef 8192) #23
  br i1 %5, label %6, label %9

6:                                                ; preds = %2
  %7 = load i64, ptr %3, align 8, !tbaa !6
  %8 = inttoptr i64 %7 to ptr
  call void @llvm.memcpy.p0.p0.i64(ptr align 8 %0, ptr align 8 %8, i64 40, i1 false), !tbaa.struct !108
  br label %20

9:                                                ; preds = %2
  %10 = load i64, ptr %3, align 8, !tbaa !6
  %11 = call i64 @RSTRING_LEN(i64 noundef %10) #23
  %12 = getelementptr inbounds nuw %struct.RString, ptr %0, i32 0, i32 1
  store i64 %11, ptr %12, align 8, !tbaa !100
  %13 = load i64, ptr %3, align 8, !tbaa !6
  %14 = inttoptr i64 %13 to ptr
  %15 = getelementptr inbounds nuw %struct.RString, ptr %14, i32 0, i32 2
  %16 = getelementptr inbounds nuw %struct.anon.22, ptr %15, i32 0, i32 0
  %17 = getelementptr inbounds [1 x i8], ptr %16, i64 0, i64 0
  %18 = getelementptr inbounds nuw %struct.RString, ptr %0, i32 0, i32 2
  %19 = getelementptr inbounds nuw %struct.anon.20, ptr %18, i32 0, i32 0
  store ptr %17, ptr %19, align 8, !tbaa !84
  br label %20

20:                                               ; preds = %9, %6
  ret void
}

; Function Attrs: inlinehint nounwind sspstrong uwtable
define internal i32 @rb_enc_mbminlen(ptr noundef %0) #6 {
  %2 = alloca ptr, align 8
  store ptr %0, ptr %2, align 8, !tbaa !79
  %3 = load ptr, ptr %2, align 8, !tbaa !79
  %4 = getelementptr inbounds nuw %struct.OnigEncodingTypeST, ptr %3, i32 0, i32 3
  %5 = load i32, ptr %4, align 4, !tbaa !103
  ret i32 %5
}

; Function Attrs: inlinehint nounwind sspstrong uwtable
define internal i32 @RB_ENCODING_GET_INLINED(i64 noundef %0) #6 {
  %2 = alloca i64, align 8
  %3 = alloca i64, align 8
  store i64 %0, ptr %2, align 8, !tbaa !6
  call void @llvm.lifetime.start.p0(i64 8, ptr %3) #21
  %4 = load i64, ptr %2, align 8, !tbaa !6
  %5 = call i64 @RB_FL_TEST_RAW(i64 noundef %4, i64 noundef 532676608) #23
  %6 = lshr i64 %5, 22
  store i64 %6, ptr %3, align 8, !tbaa !6
  %7 = load i64, ptr %3, align 8, !tbaa !6
  %8 = trunc i64 %7 to i32
  call void @llvm.lifetime.end.p0(i64 8, ptr %3) #21
  ret i32 %8
}

; Function Attrs: inlinehint nounwind sspstrong willreturn memory(read) uwtable
define internal zeroext i1 @RB_FL_ALL_RAW(i64 noundef %0, i64 noundef %1) #5 {
  %3 = alloca i64, align 8
  %4 = alloca i64, align 8
  store i64 %0, ptr %3, align 8, !tbaa !6
  store i64 %1, ptr %4, align 8, !tbaa !6
  %5 = load i64, ptr %3, align 8, !tbaa !6
  %6 = load i64, ptr %4, align 8, !tbaa !6
  %7 = call i64 @RB_FL_TEST_RAW(i64 noundef %5, i64 noundef %6) #23
  %8 = load i64, ptr %4, align 8, !tbaa !6
  %9 = icmp eq i64 %7, %8
  ret i1 %9
}

; Function Attrs: inlinehint nounwind sspstrong willreturn memory(read) uwtable
define internal i64 @RB_FL_TEST_RAW(i64 noundef %0, i64 noundef %1) #5 {
  %3 = alloca i64, align 8
  %4 = alloca i64, align 8
  store i64 %0, ptr %3, align 8, !tbaa !6
  store i64 %1, ptr %4, align 8, !tbaa !6
  %5 = load i64, ptr %3, align 8, !tbaa !6
  %6 = inttoptr i64 %5 to ptr
  %7 = getelementptr inbounds nuw %struct.RBasic, ptr %6, i32 0, i32 0
  %8 = load i64, ptr %7, align 8, !tbaa !67
  %9 = load i64, ptr %4, align 8, !tbaa !6
  %10 = and i64 %8, %9
  ret i64 %10
}

; Function Attrs: nounwind sspstrong uwtable
define internal zeroext i1 @dump_string_ascii_only(ptr noundef %0, i64 noundef %1) #0 {
  %3 = alloca i1, align 1
  %4 = alloca ptr, align 8
  %5 = alloca i64, align 8
  %6 = alloca i64, align 8
  %7 = alloca i32, align 4
  store ptr %0, ptr %4, align 8, !tbaa !69
  store i64 %1, ptr %5, align 8, !tbaa !6
  call void @llvm.lifetime.start.p0(i64 8, ptr %6) #21
  store i64 0, ptr %6, align 8, !tbaa !6
  br label %8

8:                                                ; preds = %23, %2
  %9 = load i64, ptr %6, align 8, !tbaa !6
  %10 = load i64, ptr %5, align 8, !tbaa !6
  %11 = icmp slt i64 %9, %10
  br i1 %11, label %13, label %12

12:                                               ; preds = %8
  store i32 2, ptr %7, align 4
  br label %26

13:                                               ; preds = %8
  %14 = load ptr, ptr %4, align 8, !tbaa !69
  %15 = load i64, ptr %6, align 8, !tbaa !6
  %16 = getelementptr inbounds i8, ptr %14, i64 %15
  %17 = load i8, ptr %16, align 1, !tbaa !84
  %18 = sext i8 %17 to i32
  %19 = and i32 %18, 128
  %20 = icmp ne i32 %19, 0
  br i1 %20, label %21, label %22

21:                                               ; preds = %13
  store i1 false, ptr %3, align 1
  store i32 1, ptr %7, align 4
  br label %26

22:                                               ; preds = %13
  br label %23

23:                                               ; preds = %22
  %24 = load i64, ptr %6, align 8, !tbaa !6
  %25 = add nsw i64 %24, 1
  store i64 %25, ptr %6, align 8, !tbaa !6
  br label %8, !llvm.loop !102

26:                                               ; preds = %21, %12
  call void @llvm.lifetime.end.p0(i64 8, ptr %6) #21
  %27 = load i32, ptr %7, align 4
  switch i32 %27, label %31 [
    i32 2, label %28
    i32 1, label %29
  ]

28:                                               ; preds = %26
  store i1 true, ptr %3, align 1
  br label %29

29:                                               ; preds = %28, %26
  %30 = load i1, ptr %3, align 1
  ret i1 %30

31:                                               ; preds = %26
  unreachable
}

; Function Attrs: inlinehint nounwind sspstrong uwtable
define internal ptr @RSTRING_PTR(i64 noundef %0) #6 {
  %2 = alloca i64, align 8
  %3 = alloca ptr, align 8
  %4 = alloca %struct.RString, align 8
  store i64 %0, ptr %2, align 8, !tbaa !6
  call void @llvm.lifetime.start.p0(i64 8, ptr %3) #21
  %5 = load i64, ptr %2, align 8, !tbaa !6
  call void @rbimpl_rstring_getmem(ptr dead_on_unwind writable sret(%struct.RString) align 8 %4, i64 noundef %5) #25
  %6 = getelementptr inbounds nuw %struct.RString, ptr %4, i32 0, i32 2
  %7 = getelementptr inbounds nuw %struct.anon.20, ptr %6, i32 0, i32 0
  %8 = load ptr, ptr %7, align 8, !tbaa !84
  store ptr %8, ptr %3, align 8, !tbaa !69
  %9 = load ptr, ptr %3, align 8, !tbaa !69
  call void @llvm.lifetime.end.p0(i64 8, ptr %3) #21
  ret ptr %9
}

; Function Attrs: inlinehint nounwind sspstrong willreturn memory(read) uwtable
define internal i32 @RB_ENC_CODERANGE(i64 noundef %0) #5 {
  %2 = alloca i64, align 8
  %3 = alloca i64, align 8
  store i64 %0, ptr %2, align 8, !tbaa !6
  call void @llvm.lifetime.start.p0(i64 8, ptr %3) #21
  %4 = load i64, ptr %2, align 8, !tbaa !6
  %5 = call i64 @RB_FL_TEST_RAW(i64 noundef %4, i64 noundef 3145728) #23
  store i64 %5, ptr %3, align 8, !tbaa !6
  %6 = load i64, ptr %3, align 8, !tbaa !6
  %7 = trunc i64 %6 to i32
  call void @llvm.lifetime.end.p0(i64 8, ptr %3) #21
  ret i32 %7
}

; Function Attrs: inlinehint nounwind sspstrong uwtable
define internal zeroext i1 @rb_enc_asciicompat(ptr noundef %0) #6 {
  %2 = alloca i1, align 1
  %3 = alloca ptr, align 8
  store ptr %0, ptr %3, align 8, !tbaa !79
  %4 = load ptr, ptr %3, align 8, !tbaa !79
  %5 = call i32 @rb_enc_mbminlen(ptr noundef %4)
  %6 = icmp ne i32 %5, 1
  br i1 %6, label %7, label %8

7:                                                ; preds = %1
  store i1 false, ptr %2, align 1
  br label %14

8:                                                ; preds = %1
  %9 = load ptr, ptr %3, align 8, !tbaa !79
  %10 = call i32 @rb_enc_dummy_p(ptr noundef %9) #23
  %11 = icmp ne i32 %10, 0
  br i1 %11, label %12, label %13

12:                                               ; preds = %8
  store i1 false, ptr %2, align 1
  br label %14

13:                                               ; preds = %8
  store i1 true, ptr %2, align 1
  br label %14

14:                                               ; preds = %13, %12, %7
  %15 = load i1, ptr %2, align 1
  ret i1 %15
}

; Function Attrs: inlinehint nounwind sspstrong uwtable
define internal i32 @RB_ENCODING_GET(i64 noundef %0) #6 {
  %2 = alloca i32, align 4
  %3 = alloca i64, align 8
  %4 = alloca i32, align 4
  %5 = alloca i32, align 4
  store i64 %0, ptr %3, align 8, !tbaa !6
  call void @llvm.lifetime.start.p0(i64 4, ptr %4) #21
  %6 = load i64, ptr %3, align 8, !tbaa !6
  %7 = call i32 @RB_ENCODING_GET_INLINED(i64 noundef %6)
  store i32 %7, ptr %4, align 4, !tbaa !70
  %8 = load i32, ptr %4, align 4, !tbaa !70
  %9 = icmp eq i32 %8, 127
  br i1 %9, label %10, label %13

10:                                               ; preds = %1
  %11 = load i64, ptr %3, align 8, !tbaa !6
  %12 = call i32 @rb_enc_get_index(i64 noundef %11)
  store i32 %12, ptr %2, align 4
  store i32 1, ptr %5, align 4
  br label %15

13:                                               ; preds = %1
  %14 = load i32, ptr %4, align 4, !tbaa !70
  store i32 %14, ptr %2, align 4
  store i32 1, ptr %5, align 4
  br label %15

15:                                               ; preds = %13, %10
  call void @llvm.lifetime.end.p0(i64 4, ptr %4) #21
  %16 = load i32, ptr %2, align 4
  ret i32 %16
}

; Function Attrs: inlinehint nounwind sspstrong uwtable
define internal zeroext i1 @STR_SHARED_P(i64 noundef %0) #6 {
  %2 = alloca i64, align 8
  store i64 %0, ptr %2, align 8, !tbaa !6
  %3 = load i64, ptr %2, align 8, !tbaa !6
  %4 = call zeroext i1 @RB_FL_ALL_RAW(i64 noundef %3, i64 noundef 12288) #23
  ret i1 %4
}

; Function Attrs: inlinehint nounwind sspstrong uwtable
define internal zeroext i1 @STR_EMBED_P(i64 noundef %0) #6 {
  %2 = alloca i64, align 8
  store i64 %0, ptr %2, align 8, !tbaa !6
  %3 = load i64, ptr %2, align 8, !tbaa !6
  %4 = call i64 @RB_FL_TEST_RAW(i64 noundef %3, i64 noundef 8192) #23
  %5 = icmp ne i64 %4, 0
  %6 = xor i1 %5, true
  ret i1 %6
}

; Function Attrs: inlinehint nounwind sspstrong willreturn memory(read) uwtable
define internal i64 @RSTRING_LEN(i64 noundef %0) #5 {
  %2 = alloca i64, align 8
  store i64 %0, ptr %2, align 8, !tbaa !6
  %3 = load i64, ptr %2, align 8, !tbaa !6
  %4 = inttoptr i64 %3 to ptr
  %5 = getelementptr inbounds nuw %struct.RString, ptr %4, i32 0, i32 1
  %6 = load i64, ptr %5, align 8, !tbaa !100
  ret i64 %6
}

; Function Attrs: nounwind sspstrong uwtable
define internal void @dump_append_string_content(ptr noundef %0, i64 noundef %1) #0 {
  %3 = alloca ptr, align 8
  %4 = alloca i64, align 8
  %5 = alloca i32, align 4
  store ptr %0, ptr %3, align 8, !tbaa !18
  store i64 %1, ptr %4, align 8, !tbaa !6
  %6 = load ptr, ptr %3, align 8, !tbaa !18
  call void @buffer_append(ptr noundef %6, ptr noundef @.str.86, i64 noundef 13)
  %7 = load ptr, ptr %3, align 8, !tbaa !18
  %8 = load i64, ptr %4, align 8, !tbaa !6
  %9 = call i64 @RSTRING_LEN(i64 noundef %8) #23
  call void @dump_append_ld(ptr noundef %7, i64 noundef %9)
  %10 = load i64, ptr %4, align 8, !tbaa !6
  %11 = call zeroext i1 @STR_EMBED_P(i64 noundef %10)
  br i1 %11, label %26, label %12

12:                                               ; preds = %2
  %13 = load i64, ptr %4, align 8, !tbaa !6
  %14 = call zeroext i1 @STR_SHARED_P(i64 noundef %13)
  br i1 %14, label %26, label %15

15:                                               ; preds = %12
  %16 = load i64, ptr %4, align 8, !tbaa !6
  %17 = call i64 @rb_str_capacity(i64 noundef %16) #23
  %18 = load i64, ptr %4, align 8, !tbaa !6
  %19 = call i64 @RSTRING_LEN(i64 noundef %18) #23
  %20 = icmp ne i64 %17, %19
  br i1 %20, label %21, label %26

21:                                               ; preds = %15
  %22 = load ptr, ptr %3, align 8, !tbaa !18
  call void @buffer_append(ptr noundef %22, ptr noundef @.str.87, i64 noundef 13)
  %23 = load ptr, ptr %3, align 8, !tbaa !18
  %24 = load i64, ptr %4, align 8, !tbaa !6
  %25 = call i64 @rb_str_capacity(i64 noundef %24) #23
  call void @dump_append_sizet(ptr noundef %23, i64 noundef %25)
  br label %26

26:                                               ; preds = %21, %15, %12, %2
  %27 = load i64, ptr %4, align 8, !tbaa !6
  %28 = call i64 @RSTRING_LEN(i64 noundef %27) #23
  %29 = icmp ne i64 %28, 0
  br i1 %29, label %30, label %56

30:                                               ; preds = %26
  %31 = load i64, ptr %4, align 8, !tbaa !6
  %32 = call i32 @RB_ENCODING_GET(i64 noundef %31)
  %33 = call ptr @rb_enc_from_index(i32 noundef %32)
  %34 = call zeroext i1 @rb_enc_asciicompat(ptr noundef %33)
  br i1 %34, label %35, label %56

35:                                               ; preds = %30
  call void @llvm.lifetime.start.p0(i64 4, ptr %5) #21
  %36 = load i64, ptr %4, align 8, !tbaa !6
  %37 = call i32 @RB_ENC_CODERANGE(i64 noundef %36) #23
  store i32 %37, ptr %5, align 4, !tbaa !70
  %38 = load i32, ptr %5, align 4, !tbaa !70
  %39 = icmp eq i32 %38, 0
  br i1 %39, label %40, label %48

40:                                               ; preds = %35
  %41 = load i64, ptr %4, align 8, !tbaa !6
  %42 = call ptr @RSTRING_PTR(i64 noundef %41)
  %43 = load i64, ptr %4, align 8, !tbaa !6
  %44 = call i64 @RSTRING_LEN(i64 noundef %43) #23
  %45 = call zeroext i1 @dump_string_ascii_only(ptr noundef %42, i64 noundef %44)
  br i1 %45, label %46, label %47

46:                                               ; preds = %40
  store i32 1048576, ptr %5, align 4, !tbaa !70
  br label %47

47:                                               ; preds = %46, %40
  br label %48

48:                                               ; preds = %47, %35
  %49 = load i32, ptr %5, align 4, !tbaa !70
  %50 = icmp eq i32 %49, 1048576
  br i1 %50, label %51, label %55

51:                                               ; preds = %48
  %52 = load ptr, ptr %3, align 8, !tbaa !18
  call void @buffer_append(ptr noundef %52, ptr noundef @.str.88, i64 noundef 10)
  %53 = load ptr, ptr %3, align 8, !tbaa !18
  %54 = load i64, ptr %4, align 8, !tbaa !6
  call void @dump_append_string_value(ptr noundef %53, i64 noundef %54)
  br label %55

55:                                               ; preds = %51, %48
  call void @llvm.lifetime.end.p0(i64 4, ptr %5) #21
  br label %56

56:                                               ; preds = %55, %30, %26
  ret void
}