; Function Attrs: nounwind sspstrong uwtable
define internal fastcc void @dump_append_string_content(ptr noundef %0, i64 noundef %1) unnamed_addr #0 {
  tail call fastcc void @buffer_append(ptr noundef %0, ptr noundef nonnull @.str.86, i64 noundef 13)
  %3 = inttoptr i64 %1 to ptr
  %4 = getelementptr inbounds nuw i8, ptr %3, i64 16
  %5 = load i64, ptr %4, align 8, !tbaa !85
  tail call fastcc void @dump_append_ld(ptr noundef %0, i64 noundef %5)
  %6 = load i64, ptr %3, align 8, !tbaa !17
  %7 = and i64 %6, 8192
  %.not.i = icmp eq i64 %7, 0
  %8 = and i64 %6, 12288
  %9 = icmp eq i64 %8, 12288
  %or.cond = or i1 %.not.i, %9
  br i1 %or.cond, label %thread-pre-split, label %10

10:                                               ; preds = %2
  %11 = tail call i64 @rb_str_capacity(i64 noundef %1) #13
  %12 = load i64, ptr %4, align 8, !tbaa !85
  %.not = icmp eq i64 %11, %12
  br i1 %.not, label %15, label %13

13:                                               ; preds = %10
  tail call fastcc void @buffer_append(ptr noundef %0, ptr noundef nonnull @.str.87, i64 noundef 13)
  %14 = tail call i64 @rb_str_capacity(i64 noundef %1) #13
  tail call fastcc void @dump_append_sizet(ptr noundef %0, i64 noundef %14)
  br label %thread-pre-split

thread-pre-split:                                 ; preds = %2, %13
  %.pr = load i64, ptr %4, align 8, !tbaa !85
  br label %15

15:                                               ; preds = %thread-pre-split, %10
  %16 = phi i64 [ %.pr, %thread-pre-split ], [ %11, %10 ]
  %.not20 = icmp eq i64 %16, 0
  br i1 %.not20, label %rb_enc_asciicompat.exit.thread, label %17

17:                                               ; preds = %15
  %18 = load i64, ptr %3, align 8, !tbaa !17
  %19 = trunc i64 %18 to i32
  %20 = lshr i32 %19, 22
  %21 = and i32 %20, 127
  %22 = icmp eq i32 %21, 127
  br i1 %22, label %23, label %RB_ENCODING_GET.exit

23:                                               ; preds = %17
  %24 = tail call i32 @rb_enc_get_index(i64 noundef %1) #12
  br label %RB_ENCODING_GET.exit

RB_ENCODING_GET.exit:                             ; preds = %17, %23
  %.0.i = phi i32 [ %24, %23 ], [ %21, %17 ]
  %25 = tail call ptr @rb_enc_from_index(i32 noundef %.0.i) #12
  %26 = getelementptr i8, ptr %25, i64 20
  %.val.i = load i32, ptr %26, align 4, !tbaa !87
  %.not.i21 = icmp eq i32 %.val.i, 1
  br i1 %.not.i21, label %rb_enc_asciicompat.exit, label %rb_enc_asciicompat.exit.thread

rb_enc_asciicompat.exit:                          ; preds = %RB_ENCODING_GET.exit
  %27 = tail call i32 @rb_enc_dummy_p(ptr noundef nonnull readonly %25) #13
  %.not3.i = icmp eq i32 %27, 0
  br i1 %.not3.i, label %28, label %rb_enc_asciicompat.exit.thread

28:                                               ; preds = %rb_enc_asciicompat.exit
  %29 = load i64, ptr %3, align 8, !tbaa !17
  %30 = trunc i64 %29 to i32
  %31 = and i32 %30, 3145728
  switch i32 %31, label %rb_enc_asciicompat.exit.thread [
    i32 0, label %32
    i32 1048576, label %dump_string_ascii_only.exit.thread27
  ]

32:                                               ; preds = %28
  %33 = and i64 %29, 8192
  %.not.i.i = icmp eq i64 %33, 0
  %34 = getelementptr inbounds nuw i8, ptr %3, i64 24
  br i1 %.not.i.i, label %RSTRING_PTR.exit, label %35

35:                                               ; preds = %32
  %.sroa.2.0.copyload.i = load ptr, ptr %34, align 8
  br label %RSTRING_PTR.exit

RSTRING_PTR.exit:                                 ; preds = %32, %35
  %.sroa.2.0.i = phi ptr [ %.sroa.2.0.copyload.i, %35 ], [ %34, %32 ]
  %36 = load i64, ptr %4, align 8, !tbaa !85
  %37 = icmp slt i64 %36, 1
  br i1 %37, label %dump_string_ascii_only.exit.thread27, label %.lr.ph.i

38:                                               ; preds = %.lr.ph.i
  %39 = add nuw nsw i64 %.068.i, 1
  %exitcond.not.i = icmp eq i64 %39, %36
  br i1 %exitcond.not.i, label %dump_string_ascii_only.exit.thread27, label %.lr.ph.i, !llvm.loop !88

.lr.ph.i:                                         ; preds = %RSTRING_PTR.exit, %38
  %.068.i = phi i64 [ %39, %38 ], [ 0, %RSTRING_PTR.exit ]
  %40 = getelementptr inbounds nuw i8, ptr %.sroa.2.0.i, i64 %.068.i
  %41 = load i8, ptr %40, align 1, !tbaa !34
  %.not.i23 = icmp sgt i8 %41, -1
  br i1 %.not.i23, label %38, label %rb_enc_asciicompat.exit.thread

dump_string_ascii_only.exit.thread27:             ; preds = %38, %28, %RSTRING_PTR.exit
  tail call fastcc void @buffer_append(ptr noundef %0, ptr noundef nonnull @.str.88, i64 noundef 10)
  tail call fastcc void @dump_append_string_value(ptr noundef %0, i64 noundef %1)
  br label %rb_enc_asciicompat.exit.thread

rb_enc_asciicompat.exit.thread:                   ; preds = %.lr.ph.i, %28, %RB_ENCODING_GET.exit, %dump_string_ascii_only.exit.thread27, %rb_enc_asciicompat.exit, %15
  ret void
}